; ModuleID = '10/2108.c'
source_filename = "10/2108.c"
target datalayout = "e-m:e-p270:32:32-p271:32:32-p272:64:64-i64:64-f80:128-n8:16:32:64-S128"
target triple = "x86_64-pc-linux-gnu"

@maxn = dso_local constant i32 55, align 4
@.str = private unnamed_addr constant [3 x i8] c"%d\00", align 1
@a = common dso_local global [55 x i32] zeroinitializer, align 16
@dp = common dso_local global [55 x [55 x i32]] zeroinitializer, align 16
@.str.1 = private unnamed_addr constant [4 x i8] c"%d\0A\00", align 1

; Function Attrs: noinline nounwind uwtable
define dso_local i32 @main() #0 {
  %1 = alloca i32, align 4
  %2 = alloca i32, align 4
  %3 = alloca i32, align 4
  %4 = alloca i32, align 4
  %5 = alloca i32, align 4
  %6 = alloca i32, align 4
  store i32 0, i32* %1, align 4
  br label %7

7:                                                ; preds = %136, %0
  %8 = call i32 (i8*, ...) @__isoc99_scanf(i8* getelementptr inbounds ([3 x i8], [3 x i8]* @.str, i64 0, i64 0), i32* %3)
  %9 = icmp ne i32 %8, -1
  br i1 %9, label %10, label %139

10:                                               ; preds = %7
  store i32 1, i32* %4, align 4
  br label %11

11:                                               ; preds = %20, %10
  %12 = load i32, i32* %4, align 4
  %13 = load i32, i32* %3, align 4
  %14 = icmp sle i32 %12, %13
  br i1 %14, label %15, label %23

15:                                               ; preds = %11
  %16 = load i32, i32* %4, align 4
  %17 = sext i32 %16 to i64
  %18 = getelementptr inbounds i32, i32* getelementptr inbounds ([55 x i32], [55 x i32]* @a, i64 0, i64 0), i64 %17
  %19 = call i32 (i8*, ...) @__isoc99_scanf(i8* getelementptr inbounds ([3 x i8], [3 x i8]* @.str, i64 0, i64 0), i32* %18)
  br label %20

20:                                               ; preds = %15
  %21 = load i32, i32* %4, align 4
  %22 = add nsw i32 %21, 1
  store i32 %22, i32* %4, align 4
  br label %11

23:                                               ; preds = %11
  call void @llvm.memset.p0i8.i64(i8* align 16 bitcast ([55 x [55 x i32]]* @dp to i8*), i8 -1, i64 12100, i1 false)
  store i32 1, i32* %4, align 4
  br label %24

24:                                               ; preds = %35, %23
  %25 = load i32, i32* %4, align 4
  %26 = load i32, i32* %3, align 4
  %27 = icmp sle i32 %25, %26
  br i1 %27, label %28, label %38

28:                                               ; preds = %24
  %29 = load i32, i32* %4, align 4
  %30 = sext i32 %29 to i64
  %31 = getelementptr inbounds [55 x [55 x i32]], [55 x [55 x i32]]* @dp, i64 0, i64 %30
  %32 = load i32, i32* %4, align 4
  %33 = sext i32 %32 to i64
  %34 = getelementptr inbounds [55 x i32], [55 x i32]* %31, i64 0, i64 %33
  store i32 1, i32* %34, align 4
  br label %35

35:                                               ; preds = %28
  %36 = load i32, i32* %4, align 4
  %37 = add nsw i32 %36, 1
  store i32 %37, i32* %4, align 4
  br label %24

38:                                               ; preds = %24
  store i32 1, i32* %4, align 4
  br label %39

39:                                               ; preds = %114, %38
  %40 = load i32, i32* %4, align 4
  %41 = load i32, i32* %3, align 4
  %42 = icmp slt i32 %40, %41
  br i1 %42, label %43, label %117

43:                                               ; preds = %39
  store i32 1, i32* %5, align 4
  br label %44

44:                                               ; preds = %110, %43
  %45 = load i32, i32* %5, align 4
  %46 = load i32, i32* %4, align 4
  %47 = icmp sle i32 %45, %46
  br i1 %47, label %48, label %113

48:                                               ; preds = %44
  %49 = load i32, i32* %4, align 4
  %50 = add nsw i32 %49, 1
  %51 = sext i32 %50 to i64
  %52 = getelementptr inbounds [55 x [55 x i32]], [55 x [55 x i32]]* @dp, i64 0, i64 %51
  %53 = load i32, i32* %5, align 4
  %54 = sext i32 %53 to i64
  %55 = getelementptr inbounds [55 x i32], [55 x i32]* %52, i64 0, i64 %54
  %56 = load i32, i32* %55, align 4
  %57 = load i32, i32* %4, align 4
  %58 = sext i32 %57 to i64
  %59 = getelementptr inbounds [55 x [55 x i32]], [55 x [55 x i32]]* @dp, i64 0, i64 %58
  %60 = load i32, i32* %5, align 4
  %61 = sext i32 %60 to i64
  %62 = getelementptr inbounds [55 x i32], [55 x i32]* %59, i64 0, i64 %61
  %63 = load i32, i32* %62, align 4
  %64 = call i32 (i32, i32, ...) bitcast (i32 (...)* @max to i32 (i32, i32, ...)*)(i32 %56, i32 %63)
  %65 = load i32, i32* %4, align 4
  %66 = add nsw i32 %65, 1
  %67 = sext i32 %66 to i64
  %68 = getelementptr inbounds [55 x [55 x i32]], [55 x [55 x i32]]* @dp, i64 0, i64 %67
  %69 = load i32, i32* %5, align 4
  %70 = sext i32 %69 to i64
  %71 = getelementptr inbounds [55 x i32], [55 x i32]* %68, i64 0, i64 %70
  store i32 %64, i32* %71, align 4
  %72 = load i32, i32* %4, align 4
  %73 = add nsw i32 %72, 1
  %74 = sext i32 %73 to i64
  %75 = getelementptr inbounds [55 x i32], [55 x i32]* @a, i64 0, i64 %74
  %76 = load i32, i32* %75, align 4
  %77 = load i32, i32* %5, align 4
  %78 = sext i32 %77 to i64
  %79 = getelementptr inbounds [55 x i32], [55 x i32]* @a, i64 0, i64 %78
  %80 = load i32, i32* %79, align 4
  %81 = icmp sle i32 %76, %80
  br i1 %81, label %82, label %109

82:                                               ; preds = %48
  %83 = load i32, i32* %4, align 4
  %84 = add nsw i32 %83, 1
  %85 = sext i32 %84 to i64
  %86 = getelementptr inbounds [55 x [55 x i32]], [55 x [55 x i32]]* @dp, i64 0, i64 %85
  %87 = load i32, i32* %4, align 4
  %88 = add nsw i32 %87, 1
  %89 = sext i32 %88 to i64
  %90 = getelementptr inbounds [55 x i32], [55 x i32]* %86, i64 0, i64 %89
  %91 = load i32, i32* %90, align 4
  %92 = load i32, i32* %4, align 4
  %93 = sext i32 %92 to i64
  %94 = getelementptr inbounds [55 x [55 x i32]], [55 x [55 x i32]]* @dp, i64 0, i64 %93
  %95 = load i32, i32* %5, align 4
  %96 = sext i32 %95 to i64
  %97 = getelementptr inbounds [55 x i32], [55 x i32]* %94, i64 0, i64 %96
  %98 = load i32, i32* %97, align 4
  %99 = add nsw i32 %98, 1
  %100 = call i32 (i32, i32, ...) bitcast (i32 (...)* @max to i32 (i32, i32, ...)*)(i32 %91, i32 %99)
  %101 = load i32, i32* %4, align 4
  %102 = add nsw i32 %101, 1
  %103 = sext i32 %102 to i64
  %104 = getelementptr inbounds [55 x [55 x i32]], [55 x [55 x i32]]* @dp, i64 0, i64 %103
  %105 = load i32, i32* %4, align 4
  %106 = add nsw i32 %105, 1
  %107 = sext i32 %106 to i64
  %108 = getelementptr inbounds [55 x i32], [55 x i32]* %104, i64 0, i64 %107
  store i32 %100, i32* %108, align 4
  br label %109

109:                                              ; preds = %82, %48
  br label %110

110:                                              ; preds = %109
  %111 = load i32, i32* %5, align 4
  %112 = add nsw i32 %111, 1
  store i32 %112, i32* %5, align 4
  br label %44

113:                                              ; preds = %44
  br label %114

114:                                              ; preds = %113
  %115 = load i32, i32* %4, align 4
  %116 = add nsw i32 %115, 1
  store i32 %116, i32* %4, align 4
  br label %39

117:                                              ; preds = %39
  store i32 0, i32* %6, align 4
  %118 = load i32, i32* %3, align 4
  store i32 %118, i32* %4, align 4
  store i32 1, i32* %5, align 4
  br label %119

119:                                              ; preds = %133, %117
  %120 = load i32, i32* %5, align 4
  %121 = load i32, i32* %4, align 4
  %122 = icmp sle i32 %120, %121
  br i1 %122, label %123, label %136

123:                                              ; preds = %119
  %124 = load i32, i32* %6, align 4
  %125 = load i32, i32* %4, align 4
  %126 = sext i32 %125 to i64
  %127 = getelementptr inbounds [55 x [55 x i32]], [55 x [55 x i32]]* @dp, i64 0, i64 %126
  %128 = load i32, i32* %5, align 4
  %129 = sext i32 %128 to i64
  %130 = getelementptr inbounds [55 x i32], [55 x i32]* %127, i64 0, i64 %129
  %131 = load i32, i32* %130, align 4
  %132 = call i32 (i32, i32, ...) bitcast (i32 (...)* @max to i32 (i32, i32, ...)*)(i32 %124, i32 %131)
  store i32 %132, i32* %6, align 4
  br label %133

133:                                              ; preds = %123
  %134 = load i32, i32* %5, align 4
  %135 = add nsw i32 %134, 1
  store i32 %135, i32* %5, align 4
  br label %119

136:                                              ; preds = %119
  %137 = load i32, i32* %6, align 4
  %138 = call i32 (i8*, ...) @printf(i8* getelementptr inbounds ([4 x i8], [4 x i8]* @.str.1, i64 0, i64 0), i32 %137)
  br label %7

139:                                              ; preds = %7
  ret i32 0
}

declare dso_local i32 @__isoc99_scanf(i8*, ...) #1

; Function Attrs: argmemonly nounwind willreturn
declare void @llvm.memset.p0i8.i64(i8* nocapture writeonly, i8, i64, i1 immarg) #2

declare dso_local i32 @max(...) #1

declare dso_local i32 @printf(i8*, ...) #1


!llvm.module.flags = !{!0}
!llvm.ident = !{!1}

!0 = !{i32 1, !"wchar_size", i32 4}
!1 = !{!"clang version 10.0.0-4ubuntu1 "}
